target datalayout = "e-m:e-p270:32:32-p271:32:32-p272:64:64-i64:64-i128:128-f80:128-n8:16:32:64-S128"
target triple = "x86_64-pc-linux-gnu"

%struct.H5_debug_t = type { ptr, i8, i8, [20 x %struct.anon], ptr }
%struct.anon = type { ptr, ptr }
%struct.anon.0 = type { ptr, ptr }

@H5_libinit_g = global i8 0, align 1
@H5_libterm_g = global i8 0, align 1
@H5_debug_g = global %struct.H5_debug_t zeroinitializer, align 8
@.str = private unnamed_addr constant [2 x i8] c"a\00", align 1
@.str.1 = private unnamed_addr constant [3 x i8] c"ac\00", align 1
@.str.2 = private unnamed_addr constant [2 x i8] c"b\00", align 1
@.str.3 = private unnamed_addr constant [2 x i8] c"d\00", align 1
@.str.4 = private unnamed_addr constant [2 x i8] c"e\00", align 1
@.str.5 = private unnamed_addr constant [2 x i8] c"f\00", align 1
@.str.6 = private unnamed_addr constant [2 x i8] c"g\00", align 1
@.str.7 = private unnamed_addr constant [3 x i8] c"hg\00", align 1
@.str.8 = private unnamed_addr constant [3 x i8] c"hl\00", align 1
@.str.9 = private unnamed_addr constant [2 x i8] c"i\00", align 1
@.str.10 = private unnamed_addr constant [2 x i8] c"m\00", align 1
@.str.11 = private unnamed_addr constant [3 x i8] c"mf\00", align 1
@.str.12 = private unnamed_addr constant [3 x i8] c"mm\00", align 1
@.str.13 = private unnamed_addr constant [2 x i8] c"o\00", align 1
@.str.14 = private unnamed_addr constant [2 x i8] c"p\00", align 1
@.str.15 = private unnamed_addr constant [2 x i8] c"s\00", align 1
@.str.16 = private unnamed_addr constant [2 x i8] c"t\00", align 1
@.str.17 = private unnamed_addr constant [2 x i8] c"v\00", align 1
@.str.18 = private unnamed_addr constant [3 x i8] c"vl\00", align 1
@.str.19 = private unnamed_addr constant [2 x i8] c"z\00", align 1
@H5_dont_atexit_g = internal global i8 0, align 1
@.str.30 = private unnamed_addr constant [96 x i8] c"generated/home/dtcxzyw/WorkSpace/Projects/compilers/llvm-opt-benchmark/bench/hdf5/hdf5/src/H5.c\00", align 1
@__func__.H5_init_library = private unnamed_addr constant [16 x i8] c"H5_init_library\00", align 1
@H5E_FUNC_g = external global i64, align 8
@H5E_CANTINIT_g = external global i64, align 8
@.str.31 = private unnamed_addr constant [34 x i8] c"unable to initialize %s interface\00", align 1
@.str.32 = private unnamed_addr constant [5 x i8] c"-all\00", align 1
@.str.33 = private unnamed_addr constant [11 x i8] c"HDF5_DEBUG\00", align 1

; Function Attrs: nounwind uwtable
define i32 @H5_init_library() #0 {
  %1 = alloca i64, align 8
  %2 = alloca i32, align 4
  %3 = alloca i8, align 1
  %4 = alloca [12 x %struct.anon.0], align 16
  store i32 0, ptr %2, align 4
  store i8 0, ptr %3, align 1
  %5 = load i8, ptr @H5_libinit_g, align 1
  %6 = trunc i8 %5 to i1
  br i1 %6, label %10, label %7

7:                                                ; preds = %0
  %8 = load i8, ptr @H5_libterm_g, align 1
  %9 = trunc i8 %8 to i1
  br i1 %9, label %10, label %13

10:                                               ; preds = %7, %0
  br label %11

11:                                               ; preds = %10
  store i32 0, ptr %2, align 4
  br label %54

12:                                               ; No predecessors!
  br label %13

13:                                               ; preds = %12, %7
  store i8 1, ptr @H5_libinit_g, align 1
  call void @llvm.memset.p0.i64(ptr align 8 @H5_debug_g, i8 0, i64 344, i1 false)
  store ptr @.str, ptr getelementptr inbounds (%struct.H5_debug_t, ptr @H5_debug_g, i32 0, i32 3), align 8
  store ptr @.str.1, ptr getelementptr inbounds (%struct.H5_debug_t, ptr @H5_debug_g, i32 0, i32 3, i64 1), align 8
  store ptr @.str.2, ptr getelementptr inbounds (%struct.H5_debug_t, ptr @H5_debug_g, i32 0, i32 3, i64 2), align 8
  store ptr @.str.3, ptr getelementptr inbounds (%struct.H5_debug_t, ptr @H5_debug_g, i32 0, i32 3, i64 3), align 8
  store ptr @.str.4, ptr getelementptr inbounds (%struct.H5_debug_t, ptr @H5_debug_g, i32 0, i32 3, i64 4), align 8
  store ptr @.str.5, ptr getelementptr inbounds (%struct.H5_debug_t, ptr @H5_debug_g, i32 0, i32 3, i64 5), align 8
  store ptr @.str.6, ptr getelementptr inbounds (%struct.H5_debug_t, ptr @H5_debug_g, i32 0, i32 3, i64 6), align 8
  store ptr @.str.7, ptr getelementptr inbounds (%struct.H5_debug_t, ptr @H5_debug_g, i32 0, i32 3, i64 7), align 8
  store ptr @.str.8, ptr getelementptr inbounds (%struct.H5_debug_t, ptr @H5_debug_g, i32 0, i32 3, i64 8), align 8
  store ptr @.str.9, ptr getelementptr inbounds (%struct.H5_debug_t, ptr @H5_debug_g, i32 0, i32 3, i64 9), align 8
  store ptr @.str.10, ptr getelementptr inbounds (%struct.H5_debug_t, ptr @H5_debug_g, i32 0, i32 3, i64 10), align 8
  store ptr @.str.11, ptr getelementptr inbounds (%struct.H5_debug_t, ptr @H5_debug_g, i32 0, i32 3, i64 11), align 8
  store ptr @.str.12, ptr getelementptr inbounds (%struct.H5_debug_t, ptr @H5_debug_g, i32 0, i32 3, i64 12), align 8
  store ptr @.str.13, ptr getelementptr inbounds (%struct.H5_debug_t, ptr @H5_debug_g, i32 0, i32 3, i64 13), align 8
  store ptr @.str.14, ptr getelementptr inbounds (%struct.H5_debug_t, ptr @H5_debug_g, i32 0, i32 3, i64 14), align 8
  store ptr @.str.15, ptr getelementptr inbounds (%struct.H5_debug_t, ptr @H5_debug_g, i32 0, i32 3, i64 15), align 8
  store ptr @.str.16, ptr getelementptr inbounds (%struct.H5_debug_t, ptr @H5_debug_g, i32 0, i32 3, i64 16), align 8
  store ptr @.str.17, ptr getelementptr inbounds (%struct.H5_debug_t, ptr @H5_debug_g, i32 0, i32 3, i64 17), align 8
  store ptr @.str.18, ptr getelementptr inbounds (%struct.H5_debug_t, ptr @H5_debug_g, i32 0, i32 3, i64 18), align 8
  store ptr @.str.19, ptr getelementptr inbounds (%struct.H5_debug_t, ptr @H5_debug_g, i32 0, i32 3, i64 19), align 8
  %14 = load i8, ptr @H5_dont_atexit_g, align 1
  %15 = trunc i8 %14 to i1
  br i1 %15, label %18, label %16

16:                                               ; preds = %13
  %17 = call i32 @atexit(ptr noundef @H5_term_library) #10
  store i8 1, ptr @H5_dont_atexit_g, align 1
  br label %18

18:                                               ; preds = %16, %13
  call void @llvm.memcpy.p0.p0.i64(ptr align 16 %4, ptr align 16 @__const.H5_init_library.initializer, i64 192, i1 false)
  store i64 0, ptr %1, align 8
  br label %19

19:                                               ; preds = %49, %18
  %20 = load i64, ptr %1, align 8
  %21 = icmp ult i64 %20, 12
  br i1 %21, label %22, label %52

22:                                               ; preds = %19
  %23 = load i64, ptr %1, align 8
  %24 = getelementptr inbounds [12 x %struct.anon.0], ptr %4, i64 0, i64 %23
  %25 = getelementptr inbounds %struct.anon.0, ptr %24, i32 0, i32 0
  %26 = load ptr, ptr %25, align 16
  %27 = call i32 %26()
  %28 = icmp slt i32 %27, 0
  br i1 %28, label %29, label %48

29:                                               ; preds = %22
  br label %30

30:                                               ; preds = %29
  br label %31

31:                                               ; preds = %30
  br label %32

32:                                               ; preds = %31
  %33 = load i64, ptr @H5E_FUNC_g, align 8
  %34 = load i64, ptr @H5E_CANTINIT_g, align 8
  %35 = load i64, ptr %1, align 8
  %36 = getelementptr inbounds [12 x %struct.anon.0], ptr %4, i64 0, i64 %35
  %37 = getelementptr inbounds %struct.anon.0, ptr %36, i32 0, i32 1
  %38 = load ptr, ptr %37, align 8
  %39 = call i32 (ptr, ptr, i32, i64, i64, ptr, ...) @H5E_printf_stack(ptr noundef @.str.30, ptr noundef @__func__.H5_init_library, i32 noundef 270, i64 noundef %33, i64 noundef %34, ptr noundef @.str.31, ptr noundef %38)
  br label %40

40:                                               ; preds = %32
  store i8 1, ptr %3, align 1
  %41 = load i8, ptr %3, align 1
  %42 = trunc i8 %41 to i1
  %43 = zext i1 %42 to i8
  store i8 %43, ptr %3, align 1
  br label %44

44:                                               ; preds = %40
  br label %45

45:                                               ; preds = %44
  store i32 -1, ptr %2, align 4
  br label %54

46:                                               ; No predecessors!
  br label %47

47:                                               ; preds = %46
  br label %48

48:                                               ; preds = %47, %22
  br label %49

49:                                               ; preds = %48
  %50 = load i64, ptr %1, align 8
  %51 = add i64 %50, 1
  store i64 %51, ptr %1, align 8
  br label %19

52:                                               ; preds = %19
  call void @H5__debug_mask(ptr noundef @.str.32)
  %53 = call ptr @getenv(ptr noundef @.str.33) #10
  call void @H5__debug_mask(ptr noundef %53)
  br label %54

54:                                               ; preds = %52, %45, %11
  %55 = load i32, ptr %2, align 4
  ret i32 %55
}