; Function Attrs: nounwind uwtable
define range(i32 -1, 1) i32 @H5_init_library() local_unnamed_addr #0 {
  %1 = load i8, ptr @H5_libinit_g, align 1
  %2 = trunc i8 %1 to i1
  br i1 %2, label %24, label %3

3:                                                ; preds = %0
  %4 = load i8, ptr @H5_libterm_g, align 1
  %5 = trunc i8 %4 to i1
  br i1 %5, label %24, label %6

6:                                                ; preds = %3
  store i8 1, ptr @H5_libinit_g, align 1
  tail call void @llvm.memset.p0.i64(ptr noundef nonnull align 8 dereferenceable(344) @H5_debug_g, i8 0, i64 344, i1 false)
  store ptr @.str, ptr getelementptr inbounds (i8, ptr @H5_debug_g, i64 16), align 8
  store ptr @.str.1, ptr getelementptr inbounds (i8, ptr @H5_debug_g, i64 32), align 8
  store ptr @.str.2, ptr getelementptr inbounds (i8, ptr @H5_debug_g, i64 48), align 8
  store ptr @.str.3, ptr getelementptr inbounds (i8, ptr @H5_debug_g, i64 64), align 8
  store ptr @.str.4, ptr getelementptr inbounds (i8, ptr @H5_debug_g, i64 80), align 8
  store ptr @.str.5, ptr getelementptr inbounds (i8, ptr @H5_debug_g, i64 96), align 8
  store ptr @.str.6, ptr getelementptr inbounds (i8, ptr @H5_debug_g, i64 112), align 8
  store ptr @.str.7, ptr getelementptr inbounds (i8, ptr @H5_debug_g, i64 128), align 8
  store ptr @.str.8, ptr getelementptr inbounds (i8, ptr @H5_debug_g, i64 144), align 8
  store ptr @.str.9, ptr getelementptr inbounds (i8, ptr @H5_debug_g, i64 160), align 8
  store ptr @.str.10, ptr getelementptr inbounds (i8, ptr @H5_debug_g, i64 176), align 8
  store ptr @.str.11, ptr getelementptr inbounds (i8, ptr @H5_debug_g, i64 192), align 8
  store ptr @.str.12, ptr getelementptr inbounds (i8, ptr @H5_debug_g, i64 208), align 8
  store ptr @.str.13, ptr getelementptr inbounds (i8, ptr @H5_debug_g, i64 224), align 8
  store ptr @.str.14, ptr getelementptr inbounds (i8, ptr @H5_debug_g, i64 240), align 8
  store ptr @.str.15, ptr getelementptr inbounds (i8, ptr @H5_debug_g, i64 256), align 8
  store ptr @.str.16, ptr getelementptr inbounds (i8, ptr @H5_debug_g, i64 272), align 8
  store ptr @.str.17, ptr getelementptr inbounds (i8, ptr @H5_debug_g, i64 288), align 8
  store ptr @.str.18, ptr getelementptr inbounds (i8, ptr @H5_debug_g, i64 304), align 8
  store ptr @.str.19, ptr getelementptr inbounds (i8, ptr @H5_debug_g, i64 320), align 8
  %.b7 = load i1, ptr @H5_dont_atexit_g, align 1
  br i1 %.b7, label %.preheader, label %7

7:                                                ; preds = %6
  %8 = tail call i32 @atexit(ptr noundef nonnull @H5_term_library) #21
  store i1 true, ptr @H5_dont_atexit_g, align 1
  br label %.preheader

.preheader:                                       ; preds = %7, %6
  br label %11

9:                                                ; preds = %11
  %10 = add nuw nsw i64 %.068, 1
  %exitcond.not = icmp eq i64 %10, 12
  br i1 %exitcond.not, label %22, label %11

11:                                               ; preds = %.preheader, %9
  %.068 = phi i64 [ %10, %9 ], [ 0, %.preheader ]
  %12 = getelementptr inbounds [12 x %struct.anon.0], ptr @__const.H5_init_library.initializer, i64 0, i64 %.068
  %13 = load ptr, ptr %12, align 16
  %14 = tail call i32 %13() #21
  %15 = icmp slt i32 %14, 0
  br i1 %15, label %16, label %9

16:                                               ; preds = %11
  %17 = load i64, ptr @H5E_FUNC_g, align 8
  %18 = load i64, ptr @H5E_CANTINIT_g, align 8
  %19 = getelementptr inbounds i8, ptr %12, i64 8
  %20 = load ptr, ptr %19, align 8
  %21 = tail call i32 (ptr, ptr, i32, i64, i64, ptr, ...) @H5E_printf_stack(ptr noundef nonnull @.str.30, ptr noundef nonnull @__func__.H5_init_library, i32 noundef 270, i64 noundef %17, i64 noundef %18, ptr noundef nonnull @.str.31, ptr noundef %20) #21
  br label %24

22:                                               ; preds = %9
  tail call fastcc void @H5__debug_mask(ptr noundef nonnull @.str.32)
  %23 = tail call ptr @getenv(ptr noundef nonnull @.str.33) #21
  tail call fastcc void @H5__debug_mask(ptr noundef %23)
  br label %24

24:                                               ; preds = %3, %0, %22, %16
  %.0 = phi i32 [ -1, %16 ], [ 0, %22 ], [ 0, %0 ], [ 0, %3 ]
  ret i32 %.0
}